target datalayout = "e-m:e-p270:32:32-p271:32:32-p272:64:64-i64:64-i128:128-f80:128-n8:16:32:64-S128"
target triple = "x86_64-pc-linux-gnu"

%struct.b2BodyId = type { i32, i16, i16 }
%struct.b2Vec2 = type { float, float }
%struct.b2ShapeId = type { i32, i16, i16 }
%struct.QueryContext = type { %struct.b2Vec2, %struct.b2BodyId }

; Function Attrs: mustprogress uwtable
define dso_local noundef zeroext i1 @_Z13QueryCallback9b2ShapeIdPv(i64 %0, ptr noundef %1) #10 {
  %3 = alloca i1, align 1
  %4 = alloca %struct.b2ShapeId, align 4
  %5 = alloca ptr, align 8
  %6 = alloca ptr, align 8
  %7 = alloca %struct.b2BodyId, align 4
  %8 = alloca %struct.b2ShapeId, align 4
  %9 = alloca i32, align 4
  %10 = alloca %struct.b2BodyId, align 4
  %11 = alloca i32, align 4
  %12 = alloca i8, align 1
  %13 = alloca %struct.b2ShapeId, align 4
  %14 = alloca %struct.b2Vec2, align 4
  store i64 %0, ptr %4, align 4
  store ptr %1, ptr %5, align 8, !tbaa !67
  call void @llvm.lifetime.start.p0(i64 8, ptr %6) #19
  %15 = load ptr, ptr %5, align 8, !tbaa !67
  store ptr %15, ptr %6, align 8, !tbaa !72
  call void @llvm.lifetime.start.p0(i64 8, ptr %7) #19
  call void @llvm.memcpy.p0.p0.i64(ptr align 4 %8, ptr align 4 %4, i64 8, i1 false), !tbaa.struct !40
  %16 = load i64, ptr %8, align 4
  %17 = call i64 @b2Shape_GetBody(i64 %16)
  store i64 %17, ptr %7, align 4
  call void @llvm.lifetime.start.p0(i64 4, ptr %9) #19
  call void @llvm.memcpy.p0.p0.i64(ptr align 4 %10, ptr align 4 %7, i64 8, i1 false), !tbaa.struct !40
  %18 = load i64, ptr %10, align 4
  %19 = call i32 @b2Body_GetType(i64 %18)
  store i32 %19, ptr %9, align 4, !tbaa !74
  %20 = load i32, ptr %9, align 4, !tbaa !74
  %21 = icmp ne i32 %20, 2
  br i1 %21, label %22, label %23

22:                                               ; preds = %2
  store i1 true, ptr %3, align 1
  store i32 1, ptr %11, align 4
  br label %37

23:                                               ; preds = %2
  call void @llvm.lifetime.start.p0(i64 1, ptr %12) #19
  call void @llvm.memcpy.p0.p0.i64(ptr align 4 %13, ptr align 4 %4, i64 8, i1 false), !tbaa.struct !40
  %24 = load ptr, ptr %6, align 8, !tbaa !72
  %25 = getelementptr inbounds nuw %struct.QueryContext, ptr %24, i32 0, i32 0
  call void @llvm.memcpy.p0.p0.i64(ptr align 4 %14, ptr align 4 %25, i64 8, i1 false), !tbaa.struct !66
  %26 = load i64, ptr %13, align 4
  %27 = load <2 x float>, ptr %14, align 4
  %28 = call zeroext i1 @b2Shape_TestPoint(i64 %26, <2 x float> %27)
  %29 = zext i1 %28 to i8
  store i8 %29, ptr %12, align 1, !tbaa !76
  %30 = load i8, ptr %12, align 1, !tbaa !76, !range !63, !noundef !64
  %31 = trunc i8 %30 to i1
  br i1 %31, label %32, label %35

32:                                               ; preds = %23
  %33 = load ptr, ptr %6, align 8, !tbaa !72
  %34 = getelementptr inbounds nuw %struct.QueryContext, ptr %33, i32 0, i32 1
  call void @llvm.memcpy.p0.p0.i64(ptr align 4 %34, ptr align 4 %7, i64 8, i1 false), !tbaa.struct !40
  store i1 false, ptr %3, align 1
  store i32 1, ptr %11, align 4
  br label %36

35:                                               ; preds = %23
  store i1 true, ptr %3, align 1
  store i32 1, ptr %11, align 4
  br label %36

36:                                               ; preds = %35, %32
  call void @llvm.lifetime.end.p0(i64 1, ptr %12) #19
  br label %37

37:                                               ; preds = %36, %22
  call void @llvm.lifetime.end.p0(i64 4, ptr %9) #19
  call void @llvm.lifetime.end.p0(i64 8, ptr %7) #19
  call void @llvm.lifetime.end.p0(i64 8, ptr %6) #19
  %38 = load i1, ptr %3, align 1
  ret i1 %38
}