; Function Attrs: mustprogress uwtable
define dso_local noundef zeroext i1 @_Z13QueryCallback9b2ShapeIdPv(i64 %0, ptr noundef captures(none) %1) #5 {
  %3 = tail call i64 @b2Shape_GetBody(i64 %0)
  %4 = tail call i32 @b2Body_GetType(i64 %3)
  %.not = icmp eq i32 %4, 2
  br i1 %.not, label %5, label %10

5:                                                ; preds = %2
  %.sroa.0.0.copyload = load <2 x float>, ptr %1, align 4
  %6 = tail call zeroext i1 @b2Shape_TestPoint(i64 %0, <2 x float> %.sroa.0.0.copyload)
  br i1 %6, label %7, label %9

7:                                                ; preds = %5
  %8 = getelementptr inbounds nuw i8, ptr %1, i64 8
  store i64 %3, ptr %8, align 4
  br label %9

9:                                                ; preds = %5, %7
  %.1 = xor i1 %6, true
  br label %10

10:                                               ; preds = %2, %9
  %.0 = phi i1 [ %.1, %9 ], [ true, %2 ]
  ret i1 %.0
}